; Function Attrs: mustprogress nofree norecurse nosync nounwind willreturn memory(argmem: write) uwtable
define void @_ZN6icu_756number4impl24ImmutablePatternModifierC2EPNS1_21AdoptingModifierStoreEPKNS_11PluralRulesE(ptr nocapture noundef nonnull writeonly align 8 dereferenceable(32) %this, ptr noundef %pm, ptr noundef %rules) unnamed_addr #10 align 2 personality ptr @__gxx_personality_v0 {
invoke.cont:
  store ptr getelementptr inbounds ({ [5 x ptr] }, ptr @_ZTVN6icu_756number4impl24ImmutablePatternModifierE, i64 0, i32 0, i64 2), ptr %this, align 8
  %pm2 = getelementptr inbounds i8, ptr %this, i64 8
  store ptr %pm, ptr %pm2, align 8
  %rules3 = getelementptr inbounds i8, ptr %this, i64 16
  store ptr %rules, ptr %rules3, align 8
  %parent = getelementptr inbounds i8, ptr %this, i64 24
  store ptr null, ptr %parent, align 8
  ret void
}